; Function Attrs: nofree nosync nounwind memory(readwrite, inaccessiblemem: none) uwtable
define range(i32 0, 2) i32 @Aig_ObjCheckTfi_rec(ptr noundef %0, ptr noundef %1, ptr noundef %2) local_unnamed_addr #11 {
  %4 = getelementptr i8, ptr %0, i64 312
  %5 = icmp eq ptr %1, null
  br i1 %5, label %._crit_edge, label %.lr.ph

.lr.ph:                                           ; preds = %3
  %6 = getelementptr i8, ptr %0, i64 248
  br label %7

7:                                                ; preds = %.lr.ph, %Aig_ObjEquiv.exit
  %.tr3032 = phi ptr [ %1, %.lr.ph ], [ %31, %Aig_ObjEquiv.exit ]
  %8 = getelementptr i8, ptr %.tr3032, i64 24
  %.val24 = load i64, ptr %8, align 8
  %9 = and i64 %.val24, 7
  %.not = icmp eq i64 %9, 2
  br i1 %.not, label %._crit_edge, label %10

10:                                               ; preds = %7
  %11 = icmp eq ptr %.tr3032, %2
  br i1 %11, label %._crit_edge, label %12

12:                                               ; preds = %10
  %.val25 = load i32, ptr %4, align 8
  %13 = getelementptr i8, ptr %.tr3032, i64 32
  %.val26 = load i32, ptr %13, align 8
  %.not29 = icmp eq i32 %.val26, %.val25
  br i1 %.not29, label %._crit_edge, label %14

14:                                               ; preds = %12
  store i32 %.val25, ptr %13, align 8
  %15 = getelementptr i8, ptr %.tr3032, i64 8
  %.val = load ptr, ptr %15, align 8
  %16 = ptrtoint ptr %.val to i64
  %17 = and i64 %16, -2
  %18 = inttoptr i64 %17 to ptr
  %19 = tail call i32 @Aig_ObjCheckTfi_rec(ptr noundef nonnull %0, ptr noundef %18, ptr noundef %2)
  %.not21 = icmp eq i32 %19, 0
  br i1 %.not21, label %20, label %._crit_edge

20:                                               ; preds = %14
  %21 = getelementptr i8, ptr %.tr3032, i64 16
  %.val23 = load ptr, ptr %21, align 8
  %22 = ptrtoint ptr %.val23 to i64
  %23 = and i64 %22, -2
  %24 = inttoptr i64 %23 to ptr
  %25 = tail call i32 @Aig_ObjCheckTfi_rec(ptr noundef nonnull %0, ptr noundef %24, ptr noundef %2)
  %.not22 = icmp eq i32 %25, 0
  br i1 %.not22, label %26, label %._crit_edge

26:                                               ; preds = %20
  %.val28 = load ptr, ptr %6, align 8
  %.not.i = icmp eq ptr %.val28, null
  br i1 %.not.i, label %._crit_edge, label %Aig_ObjEquiv.exit

Aig_ObjEquiv.exit:                                ; preds = %26
  %27 = getelementptr inbounds nuw i8, ptr %.tr3032, i64 36
  %28 = load i32, ptr %27, align 4
  %29 = sext i32 %28 to i64
  %30 = getelementptr inbounds ptr, ptr %.val28, i64 %29
  %31 = load ptr, ptr %30, align 8
  %32 = icmp eq ptr %31, null
  br i1 %32, label %._crit_edge, label %7

._crit_edge:                                      ; preds = %26, %Aig_ObjEquiv.exit, %7, %10, %12, %14, %20, %3
  %.0 = phi i32 [ 0, %3 ], [ 0, %26 ], [ 1, %20 ], [ 1, %14 ], [ 0, %12 ], [ 1, %10 ], [ 0, %7 ], [ 0, %Aig_ObjEquiv.exit ]
  ret i32 %.0
}